(dp0
Vengine
p1
Vxelatex
p2
sVpackages
p3
c__builtin__
set
p4
((lp5
Vhyperref
p6
aVxcolor
p7
aVxunicode
p8
aVurl
p9
aVbabel
p10
aVfontspec
p11
aVfancyhdr
p12
aVgeometry
p13
aVmulticol
p14
aVhanging
p15
aVbibentry
p16
aVtipa
p17
aVnatbib
p18
atp19
Rp20
sVfiles_with_guttermarks
p21
g4
((lp22
S'casillas_cv.tex'
p23
atp24
Rp25
sVsynctex
p26
I01
s.